; Function Attrs: mustprogress uwtable
define hidden void @_ZN1q4mbqi10init_modelEv(ptr noundef nonnull align 8 dereferenceable(280) %this) local_unnamed_addr #3 align 2 {
entry:
  %m_model = getelementptr inbounds i8, ptr %this, i64 176
  %0 = load ptr, ptr %m_model, align 8
  %cmp.i.not = icmp eq ptr %0, null
  br i1 %cmp.i.not, label %if.end.i, label %return

if.end.i:                                         ; preds = %entry
  %call2 = tail call noalias noundef ptr @_ZN6memory8allocateEm(i64 noundef 160)
  %m = getelementptr inbounds i8, ptr %this, i64 16
  %1 = load ptr, ptr %m, align 8
  tail call void @_ZN5modelC1ER11ast_manager(ptr noundef nonnull align 8 dereferenceable(160) %call2, ptr noundef nonnull align 8 dereferenceable(976) %1)
  %m_ref_count.i.i = getelementptr inbounds i8, ptr %call2, i64 16
  %2 = load i32, ptr %m_ref_count.i.i, align 8
  %inc.i.i = add i32 %2, 1
  store i32 %inc.i.i, ptr %m_ref_count.i.i, align 8
  %3 = load ptr, ptr %m_model, align 8
  %tobool.not.i.i = icmp eq ptr %3, null
  br i1 %tobool.not.i.i, label %_ZN3refI5modelEaSEPS0_.exit, label %if.then.i.i

if.then.i.i:                                      ; preds = %if.end.i
  %m_ref_count.i.i.i = getelementptr inbounds i8, ptr %3, i64 16
  %4 = load i32, ptr %m_ref_count.i.i.i, align 8
  %dec.i.i.i = add i32 %4, -1
  store i32 %dec.i.i.i, ptr %m_ref_count.i.i.i, align 8
  %cmp.i.i.i = icmp eq i32 %dec.i.i.i, 0
  br i1 %cmp.i.i.i, label %if.then.i.i.i, label %_ZN3refI5modelEaSEPS0_.exit

if.then.i.i.i:                                    ; preds = %if.then.i.i
  %vtable.i.i.i.i = load ptr, ptr %3, align 8
  %5 = load ptr, ptr %vtable.i.i.i.i, align 8
  tail call void %5(ptr noundef nonnull align 8 dereferenceable(96) %3) #18
  tail call void @_ZN6memory10deallocateEPv(ptr noundef nonnull %3)
  br label %_ZN3refI5modelEaSEPS0_.exit

_ZN3refI5modelEaSEPS0_.exit:                      ; preds = %if.end.i, %if.then.i.i, %if.then.i.i.i
  store ptr %call2, ptr %m_model, align 8
  %6 = load ptr, ptr %this, align 8
  tail call void @_ZN3euf6solver12update_modelER3refI5modelEb(ptr noundef nonnull align 8 dereferenceable(9136) %6, ptr noundef nonnull align 8 dereferenceable(8) %m_model, i1 noundef zeroext false)
  br label %return

return:                                           ; preds = %entry, %_ZN3refI5modelEaSEPS0_.exit
  ret void
}